target datalayout = "e-m:e-p270:32:32-p271:32:32-p272:64:64-i64:64-i128:128-f80:128-n8:16:32:64-S128"
target triple = "x86_64-unknown-linux-gnu"

%"class.std::set.0" = type { %"class.std::_Rb_tree.1" }
%"class.std::_Rb_tree.1" = type { %"struct.std::_Rb_tree<QuantLib::Observer *, QuantLib::Observer *, std::_Identity<QuantLib::Observer *>, std::less<QuantLib::Observer *>>::_Rb_tree_impl" }
%"struct.std::_Rb_tree<QuantLib::Observer *, QuantLib::Observer *, std::_Identity<QuantLib::Observer *>, std::less<QuantLib::Observer *>>::_Rb_tree_impl" = type { [8 x i8], %"struct.std::_Rb_tree_header" }
%"struct.std::_Rb_tree_header" = type { %"struct.std::_Rb_tree_node_base", i64 }
%"struct.std::_Rb_tree_node_base" = type { i32, ptr, ptr, ptr }
%"class.QuantLib::Date" = type { i64 }
%"class.boost::detail::shared_count" = type { ptr }
%"class.boost::optional.33" = type { %"class.boost::optional_detail::tc_optional_base.34" }
%"class.boost::optional_detail::tc_optional_base.34" = type { i8, i8 }
%"class.std::set" = type { %"class.std::_Rb_tree" }
%"class.std::_Rb_tree" = type { %"struct.std::_Rb_tree<boost::shared_ptr<QuantLib::Observable>, boost::shared_ptr<QuantLib::Observable>, std::_Identity<boost::shared_ptr<QuantLib::Observable>>, std::less<boost::shared_ptr<QuantLib::Observable>>>::_Rb_tree_impl" }
%"struct.std::_Rb_tree<boost::shared_ptr<QuantLib::Observable>, boost::shared_ptr<QuantLib::Observable>, std::_Identity<boost::shared_ptr<QuantLib::Observable>>, std::less<boost::shared_ptr<QuantLib::Observable>>>::_Rb_tree_impl" = type { [8 x i8], %"struct.std::_Rb_tree_header" }
%"class.QuantLib::Observable" = type { ptr, %"class.std::set.0" }
%"class.QuantLib::DayCounter" = type { %"class.boost::shared_ptr.8" }
%"class.boost::shared_ptr.8" = type { ptr, %"class.boost::detail::shared_count" }
%"class.QuantLib::CdsHelper" = type { %"class.QuantLib::RelativeDateBootstrapHelper", %"class.QuantLib::Period", i32, %"class.QuantLib::Calendar", i32, i32, i32, %"class.QuantLib::DayCounter", double, %"class.QuantLib::Handle.28", i8, i8, %"class.QuantLib::DayCounter", i8, i32, %"class.QuantLib::Schedule", %"class.boost::shared_ptr.39", %"class.QuantLib::RelinkableHandle", %"class.QuantLib::Date", %"class.QuantLib::Date" }
%"class.QuantLib::RelativeDateBootstrapHelper" = type { %"class.QuantLib::BootstrapHelper", %"class.QuantLib::Date" }
%"class.QuantLib::BootstrapHelper" = type { %"class.QuantLib::Observer", %"class.QuantLib::Observable", %"class.QuantLib::Handle", ptr, %"class.QuantLib::Date", %"class.QuantLib::Date", %"class.QuantLib::Date", %"class.QuantLib::Date", %"class.QuantLib::Date" }
%"class.QuantLib::Observer" = type { ptr, %"class.std::set" }
%"class.QuantLib::Handle" = type { %"class.boost::shared_ptr.27" }
%"class.boost::shared_ptr.27" = type { ptr, %"class.boost::detail::shared_count" }
%"class.QuantLib::Period" = type { i32, i32 }
%"class.QuantLib::Calendar" = type { %"class.boost::shared_ptr.9" }
%"class.boost::shared_ptr.9" = type { ptr, %"class.boost::detail::shared_count" }
%"class.QuantLib::Handle.28" = type { %"class.boost::shared_ptr.29" }
%"class.boost::shared_ptr.29" = type { ptr, %"class.boost::detail::shared_count" }
%"class.QuantLib::Schedule" = type { %"class.boost::optional", %"class.QuantLib::Calendar", i32, %"class.boost::optional.30", %"class.boost::optional.31", %"class.boost::optional.33", %"class.QuantLib::Date", %"class.QuantLib::Date", %"class.std::vector.13", %"class.std::vector.35" }
%"class.boost::optional" = type { %"class.boost::optional_detail::optional_base" }
%"class.boost::optional_detail::optional_base" = type { i8, [3 x i8], %"class.boost::optional_detail::aligned_storage" }
%"class.boost::optional_detail::aligned_storage" = type { %"union.boost::optional_detail::aligned_storage<QuantLib::Period>::dummy_u" }
%"union.boost::optional_detail::aligned_storage<QuantLib::Period>::dummy_u" = type { [8 x i8] }
%"class.boost::optional.30" = type { %"class.boost::optional_detail::tc_optional_base" }
%"class.boost::optional_detail::tc_optional_base" = type { i8, i32 }
%"class.boost::optional.31" = type { %"class.boost::optional_detail::tc_optional_base.32" }
%"class.boost::optional_detail::tc_optional_base.32" = type { i8, i32 }
%"class.std::vector.13" = type { %"struct.std::_Vector_base.14" }
%"struct.std::_Vector_base.14" = type { %"struct.std::_Vector_base<QuantLib::Date, std::allocator<QuantLib::Date>>::_Vector_impl" }
%"struct.std::_Vector_base<QuantLib::Date, std::allocator<QuantLib::Date>>::_Vector_impl" = type { %"struct.std::_Vector_base<QuantLib::Date, std::allocator<QuantLib::Date>>::_Vector_impl_data" }
%"struct.std::_Vector_base<QuantLib::Date, std::allocator<QuantLib::Date>>::_Vector_impl_data" = type { ptr, ptr, ptr }
%"class.std::vector.35" = type { %"struct.std::_Bvector_base" }
%"struct.std::_Bvector_base" = type { %"struct.std::_Bvector_base<std::allocator<bool>>::_Bvector_impl" }
%"struct.std::_Bvector_base<std::allocator<bool>>::_Bvector_impl" = type { %"struct.std::_Bvector_base<std::allocator<bool>>::_Bvector_impl_data" }
%"struct.std::_Bvector_base<std::allocator<bool>>::_Bvector_impl_data" = type { %"struct.std::_Bit_iterator", %"struct.std::_Bit_iterator", ptr }
%"struct.std::_Bit_iterator" = type { %"struct.std::_Bit_iterator_base.base", [4 x i8] }
%"struct.std::_Bit_iterator_base.base" = type <{ ptr, i32 }>
%"class.boost::shared_ptr.39" = type { ptr, %"class.boost::detail::shared_count" }
%"class.QuantLib::RelinkableHandle" = type { %"class.QuantLib::Handle.40" }
%"class.QuantLib::Handle.40" = type { %"class.boost::shared_ptr.41" }
%"class.boost::shared_ptr.41" = type { ptr, %"class.boost::detail::shared_count" }
%"class.QuantLib::LazyObject" = type <{ ptr, i8, i8, i8, i8, [4 x i8], %"class.QuantLib::Observable", %"class.QuantLib::Observer" }>

@.str.7 = private unnamed_addr constant [8 x i8] c"px != 0\00", align 1
@.str.8 = private unnamed_addr constant [102 x i8] c"generated/home/dtcxzyw/WorkSpace/SDK/vcpkg/installed/x64-linux/include/boost/smart_ptr/shared_ptr.hpp\00", align 1
@__PRETTY_FUNCTION__._ZNK5boost10shared_ptrIN8QuantLib17CreditDefaultSwapEEptEv = private unnamed_addr constant [151 x i8] c"typename boost::detail::sp_member_access<T>::type boost::shared_ptr<QuantLib::CreditDefaultSwap>::operator->() const [T = QuantLib::CreditDefaultSwap]\00", align 1

; Function Attrs: inlinehint mustprogress uwtable
define linkonce_odr void @_ZN8QuantLib10LazyObject11recalculateEv(ptr noundef nonnull align 8 dereferenceable(12) %this) #4 comdat align 2 personality ptr @__gxx_personality_v0 {
entry:
  %this.addr = alloca ptr, align 8
  %wasFrozen = alloca i8, align 1
  %exn.slot = alloca ptr, align 8
  %ehselector.slot = alloca i32, align 4
  store ptr %this, ptr %this.addr, align 8, !tbaa !3
  %this1 = load ptr, ptr %this.addr, align 8
  call void @llvm.lifetime.start.p0(i64 1, ptr %wasFrozen) #15
  %frozen_ = getelementptr inbounds nuw %"class.QuantLib::LazyObject", ptr %this1, i32 0, i32 2
  %0 = load i8, ptr %frozen_, align 1, !tbaa !108, !range !92, !noundef !93
  %loadedv = trunc i8 %0 to i1
  %storedv = zext i1 %loadedv to i8
  store i8 %storedv, ptr %wasFrozen, align 1, !tbaa !27
  %frozen_2 = getelementptr inbounds nuw %"class.QuantLib::LazyObject", ptr %this1, i32 0, i32 2
  store i8 0, ptr %frozen_2, align 1, !tbaa !108
  %calculated_ = getelementptr inbounds nuw %"class.QuantLib::LazyObject", ptr %this1, i32 0, i32 1
  store i8 0, ptr %calculated_, align 8, !tbaa !110
  %vtable = load ptr, ptr %this1, align 8, !tbaa !12
  %vfn = getelementptr inbounds ptr, ptr %vtable, i64 3
  %1 = load ptr, ptr %vfn, align 8
  invoke void %1(ptr noundef nonnull align 8 dereferenceable(12) %this1)
          to label %invoke.cont unwind label %lpad

invoke.cont:                                      ; preds = %entry
  br label %try.cont

lpad:                                             ; preds = %entry
  %2 = landingpad { ptr, i32 }
          catch ptr null
  %3 = extractvalue { ptr, i32 } %2, 0
  store ptr %3, ptr %exn.slot, align 8
  %4 = extractvalue { ptr, i32 } %2, 1
  store i32 %4, ptr %ehselector.slot, align 4
  br label %catch

catch:                                            ; preds = %lpad
  %exn = load ptr, ptr %exn.slot, align 8
  %5 = call ptr @__cxa_begin_catch(ptr %exn) #15
  %6 = load i8, ptr %wasFrozen, align 1, !tbaa !27, !range !92, !noundef !93
  %loadedv3 = trunc i8 %6 to i1
  %frozen_4 = getelementptr inbounds nuw %"class.QuantLib::LazyObject", ptr %this1, i32 0, i32 2
  %storedv5 = zext i1 %loadedv3 to i8
  store i8 %storedv5, ptr %frozen_4, align 1, !tbaa !108
  %vtable6 = load ptr, ptr %this1, align 8, !tbaa !12
  %vbase.offset.ptr = getelementptr i8, ptr %vtable6, i64 -24
  %vbase.offset = load i64, ptr %vbase.offset.ptr, align 8
  %add.ptr = getelementptr inbounds i8, ptr %this1, i64 %vbase.offset
  invoke void @_ZN8QuantLib10Observable15notifyObserversEv(ptr noundef nonnull align 8 dereferenceable(56) %add.ptr)
          to label %invoke.cont8 unwind label %lpad7

invoke.cont8:                                     ; preds = %catch
  invoke void @__cxa_rethrow() #23
          to label %unreachable unwind label %lpad7

lpad7:                                            ; preds = %invoke.cont8, %catch
  %7 = landingpad { ptr, i32 }
          cleanup
  %8 = extractvalue { ptr, i32 } %7, 0
  store ptr %8, ptr %exn.slot, align 8
  %9 = extractvalue { ptr, i32 } %7, 1
  store i32 %9, ptr %ehselector.slot, align 4
  invoke void @__cxa_end_catch()
          to label %invoke.cont9 unwind label %terminate.lpad

invoke.cont9:                                     ; preds = %lpad7
  call void @llvm.lifetime.end.p0(i64 1, ptr %wasFrozen) #15
  br label %eh.resume

try.cont:                                         ; preds = %invoke.cont
  %10 = load i8, ptr %wasFrozen, align 1, !tbaa !27, !range !92, !noundef !93
  %loadedv10 = trunc i8 %10 to i1
  %frozen_11 = getelementptr inbounds nuw %"class.QuantLib::LazyObject", ptr %this1, i32 0, i32 2
  %storedv12 = zext i1 %loadedv10 to i8
  store i8 %storedv12, ptr %frozen_11, align 1, !tbaa !108
  %vtable13 = load ptr, ptr %this1, align 8, !tbaa !12
  %vbase.offset.ptr14 = getelementptr i8, ptr %vtable13, i64 -24
  %vbase.offset15 = load i64, ptr %vbase.offset.ptr14, align 8
  %add.ptr16 = getelementptr inbounds i8, ptr %this1, i64 %vbase.offset15
  call void @_ZN8QuantLib10Observable15notifyObserversEv(ptr noundef nonnull align 8 dereferenceable(56) %add.ptr16)
  call void @llvm.lifetime.end.p0(i64 1, ptr %wasFrozen) #15
  ret void

eh.resume:                                        ; preds = %invoke.cont9
  %exn17 = load ptr, ptr %exn.slot, align 8
  %sel = load i32, ptr %ehselector.slot, align 4
  %lpad.val = insertvalue { ptr, i32 } poison, ptr %exn17, 0
  %lpad.val18 = insertvalue { ptr, i32 } %lpad.val, i32 %sel, 1
  resume { ptr, i32 } %lpad.val18

terminate.lpad:                                   ; preds = %lpad7
  %11 = landingpad { ptr, i32 }
          catch ptr null
  %12 = extractvalue { ptr, i32 } %11, 0
  call void @__clang_call_terminate(ptr %12) #22
  unreachable

unreachable:                                      ; preds = %invoke.cont8
  unreachable
}

; Function Attrs: mustprogress uwtable
define linkonce_odr noundef ptr @_ZNK5boost10shared_ptrIN8QuantLib17CreditDefaultSwapEEptEv(ptr noundef nonnull align 8 dereferenceable(16) %this) #2 comdat align 2 {
entry:
  %this.addr = alloca ptr, align 8
  store ptr %this, ptr %this.addr, align 8, !tbaa !3
  %this1 = load ptr, ptr %this.addr, align 8
  %px = getelementptr inbounds nuw %"class.boost::shared_ptr.39", ptr %this1, i32 0, i32 0
  %0 = load ptr, ptr %px, align 8, !tbaa !100
  %cmp = icmp ne ptr %0, null
  %lnot = xor i1 %cmp, true
  %lnot2 = xor i1 %lnot, true
  %conv = zext i1 %lnot2 to i64
  %expval = call i64 @llvm.expect.i64(i64 %conv, i64 1)
  %tobool = icmp ne i64 %expval, 0
  br i1 %tobool, label %cond.true, label %cond.false

cond.true:                                        ; preds = %entry
  br label %cond.end

cond.false:                                       ; preds = %entry
  call void @_ZN5boost16assertion_failedEPKcS1_S1_l(ptr noundef @.str.7, ptr noundef @__PRETTY_FUNCTION__._ZNK5boost10shared_ptrIN8QuantLib17CreditDefaultSwapEEptEv, ptr noundef @.str.8, i64 noundef 784)
  br label %cond.end

cond.end:                                         ; preds = %cond.false, %cond.true
  %px3 = getelementptr inbounds nuw %"class.boost::shared_ptr.39", ptr %this1, i32 0, i32 0
  %1 = load ptr, ptr %px3, align 8, !tbaa !100
  ret ptr %1
}

; Function Attrs: mustprogress uwtable
define noundef double @_ZNK8QuantLib15SpreadCdsHelper12impliedQuoteEv(ptr noundef nonnull align 8 dereferenceable(488) %this) unnamed_addr #2 align 2 {
entry:
  %this.addr = alloca ptr, align 8
  store ptr %this, ptr %this.addr, align 8, !tbaa !3
  %this1 = load ptr, ptr %this.addr, align 8
  %swap_ = getelementptr inbounds nuw %"class.QuantLib::CdsHelper", ptr %this1, i32 0, i32 16
  %call = call noundef ptr @_ZNK5boost10shared_ptrIN8QuantLib17CreditDefaultSwapEEptEv(ptr noundef nonnull align 8 dereferenceable(16) %swap_)
  call void @_ZN8QuantLib10LazyObject11recalculateEv(ptr noundef nonnull align 8 dereferenceable(12) %call)
  %swap_2 = getelementptr inbounds nuw %"class.QuantLib::CdsHelper", ptr %this1, i32 0, i32 16
  %call3 = call noundef ptr @_ZNK5boost10shared_ptrIN8QuantLib17CreditDefaultSwapEEptEv(ptr noundef nonnull align 8 dereferenceable(16) %swap_2)
  %call4 = call noundef double @_ZNK8QuantLib17CreditDefaultSwap10fairSpreadEv(ptr noundef nonnull align 8 dereferenceable(320) %call3)
  ret double %call4
}