; Function Attrs: mustprogress uwtable
define noundef double @_ZNK8QuantLib15SpreadCdsHelper12impliedQuoteEv(ptr nocapture noundef nonnull readonly align 8 dereferenceable(488) %this) unnamed_addr #8 align 2 personality ptr @__gxx_personality_v0 {
entry:
  %swap_ = getelementptr inbounds nuw i8, ptr %this, i64 440
  %0 = load ptr, ptr %swap_, align 8, !tbaa !150
  %cmp.not.i = icmp eq ptr %0, null
  br i1 %cmp.not.i, label %cond.false.i, label %_ZNK5boost10shared_ptrIN8QuantLib17CreditDefaultSwapEEptEv.exit, !prof !147

cond.false.i:                                     ; preds = %entry
  tail call void @_ZN5boost16assertion_failedEPKcS1_S1_l(ptr noundef nonnull @.str.7, ptr noundef nonnull @__PRETTY_FUNCTION__._ZNK5boost10shared_ptrIN8QuantLib17CreditDefaultSwapEEptEv, ptr noundef nonnull @.str.8, i64 noundef 784)
  %.pre.i = load ptr, ptr %swap_, align 8, !tbaa !150
  br label %_ZNK5boost10shared_ptrIN8QuantLib17CreditDefaultSwapEEptEv.exit

_ZNK5boost10shared_ptrIN8QuantLib17CreditDefaultSwapEEptEv.exit: ; preds = %entry, %cond.false.i
  %1 = phi ptr [ %0, %entry ], [ %.pre.i, %cond.false.i ]
  %frozen_.i = getelementptr inbounds nuw i8, ptr %1, i64 9
  %2 = load i8, ptr %frozen_.i, align 1, !tbaa !151, !range !26, !noundef !27
  store i8 0, ptr %frozen_.i, align 1, !tbaa !151
  %calculated_.i = getelementptr inbounds nuw i8, ptr %1, i64 8
  store i8 0, ptr %calculated_.i, align 8, !tbaa !153
  %vtable.i = load ptr, ptr %1, align 8, !tbaa !28
  %vfn.i = getelementptr inbounds i8, ptr %vtable.i, i64 24
  %3 = load ptr, ptr %vfn.i, align 8
  invoke void %3(ptr noundef nonnull align 8 dereferenceable(12) %1)
          to label %_ZN8QuantLib10LazyObject11recalculateEv.exit unwind label %lpad.i

lpad.i:                                           ; preds = %_ZNK5boost10shared_ptrIN8QuantLib17CreditDefaultSwapEEptEv.exit
  %4 = landingpad { ptr, i32 }
          catch ptr null
  %5 = extractvalue { ptr, i32 } %4, 0
  %6 = tail call ptr @__cxa_begin_catch(ptr %5) #25
  store i8 %2, ptr %frozen_.i, align 1, !tbaa !151
  %vtable6.i = load ptr, ptr %1, align 8, !tbaa !28
  %vbase.offset.ptr.i = getelementptr i8, ptr %vtable6.i, i64 -24
  %vbase.offset.i = load i64, ptr %vbase.offset.ptr.i, align 8
  %add.ptr.i = getelementptr inbounds i8, ptr %1, i64 %vbase.offset.i
  invoke void @_ZN8QuantLib10Observable15notifyObserversEv(ptr noundef nonnull align 8 dereferenceable(56) %add.ptr.i)
          to label %invoke.cont8.i unwind label %lpad7.i

invoke.cont8.i:                                   ; preds = %lpad.i
  invoke void @__cxa_rethrow() #27
          to label %unreachable.i unwind label %lpad7.i

lpad7.i:                                          ; preds = %invoke.cont8.i, %lpad.i
  %7 = landingpad { ptr, i32 }
          cleanup
  invoke void @__cxa_end_catch()
          to label %invoke.cont9.i unwind label %terminate.lpad.i

invoke.cont9.i:                                   ; preds = %lpad7.i
  resume { ptr, i32 } %7

terminate.lpad.i:                                 ; preds = %lpad7.i
  %8 = landingpad { ptr, i32 }
          catch ptr null
  %9 = extractvalue { ptr, i32 } %8, 0
  tail call void @__clang_call_terminate(ptr %9) #26
  unreachable

unreachable.i:                                    ; preds = %invoke.cont8.i
  unreachable

_ZN8QuantLib10LazyObject11recalculateEv.exit:     ; preds = %_ZNK5boost10shared_ptrIN8QuantLib17CreditDefaultSwapEEptEv.exit
  store i8 %2, ptr %frozen_.i, align 1, !tbaa !151
  %vtable13.i = load ptr, ptr %1, align 8, !tbaa !28
  %vbase.offset.ptr14.i = getelementptr i8, ptr %vtable13.i, i64 -24
  %vbase.offset15.i = load i64, ptr %vbase.offset.ptr14.i, align 8
  %add.ptr16.i = getelementptr inbounds i8, ptr %1, i64 %vbase.offset15.i
  tail call void @_ZN8QuantLib10Observable15notifyObserversEv(ptr noundef nonnull align 8 dereferenceable(56) %add.ptr16.i)
  %10 = load ptr, ptr %swap_, align 8, !tbaa !150
  %cmp.not.i1 = icmp eq ptr %10, null
  br i1 %cmp.not.i1, label %cond.false.i2, label %_ZNK5boost10shared_ptrIN8QuantLib17CreditDefaultSwapEEptEv.exit4, !prof !147

cond.false.i2:                                    ; preds = %_ZN8QuantLib10LazyObject11recalculateEv.exit
  tail call void @_ZN5boost16assertion_failedEPKcS1_S1_l(ptr noundef nonnull @.str.7, ptr noundef nonnull @__PRETTY_FUNCTION__._ZNK5boost10shared_ptrIN8QuantLib17CreditDefaultSwapEEptEv, ptr noundef nonnull @.str.8, i64 noundef 784)
  %.pre.i3 = load ptr, ptr %swap_, align 8, !tbaa !150
  br label %_ZNK5boost10shared_ptrIN8QuantLib17CreditDefaultSwapEEptEv.exit4

_ZNK5boost10shared_ptrIN8QuantLib17CreditDefaultSwapEEptEv.exit4: ; preds = %_ZN8QuantLib10LazyObject11recalculateEv.exit, %cond.false.i2
  %11 = phi ptr [ %10, %_ZN8QuantLib10LazyObject11recalculateEv.exit ], [ %.pre.i3, %cond.false.i2 ]
  %call4 = tail call noundef double @_ZNK8QuantLib17CreditDefaultSwap10fairSpreadEv(ptr noundef nonnull align 8 dereferenceable(320) %11)
  ret double %call4
}